target datalayout = "e-m:e-p270:32:32-p271:32:32-p272:64:64-i64:64-i128:128-f80:128-n8:16:32:64-S128"
target triple = "x86_64-pc-linux-gnu"

%"class.clang::CodeGen::Address" = type { %"class.llvm::PointerIntPair", ptr, %"class.clang::CharUnits", %"class.clang::CodeGen::CGPointerAuthInfo", ptr }
%"class.llvm::PointerIntPair" = type { %"struct.llvm::detail::PunnedPointer" }
%"struct.llvm::detail::PunnedPointer" = type { [8 x i8] }
%"class.clang::CharUnits" = type { i64 }
%"class.clang::CodeGen::CGPointerAuthInfo" = type { i8, ptr }
%"class.clang::CodeGen::RawAddress" = type { %"class.llvm::PointerIntPair", ptr, %"class.clang::CharUnits" }
%"class.clang::CodeGen::CodeGenFunction" = type { %"struct.clang::CodeGen::CodeGenTypeCache", ptr, ptr, ptr, %"class.clang::CodeGen::LoopInfoStack", %"class.clang::CodeGen::CGBuilderTy", %"class.clang::CodeGen::VarBypassDetector", %"class.llvm::SmallVector.27", %"class.llvm::SmallVector.32", %"class.llvm::SmallVector.37", i32, ptr, ptr, ptr, %"class.clang::QualType", ptr, %"class.llvm::SmallVector.44", %"struct.clang::CodeGen::CodeGenFunction::CGCoroInfo", %"struct.clang::CodeGen::CodeGenFunction::AwaitSuspendWrapperInfo", %"class.clang::GlobalDecl", %"class.clang::CodeGen::EHScopeStack::stable_iterator", %"struct.clang::CodeGen::CodeGenFunction::JumpDest", %"class.clang::CodeGen::Address", %"class.clang::CodeGen::Address", ptr, %"class.llvm::AssertingVH", %"class.llvm::AssertingVH", ptr, %"struct.clang::SanitizerSet", i8, i8, i8, i8, [4 x i8], %"class.clang::GlobalDecl", i8, i8, i8, i8, i8, i8, ptr, ptr, ptr, %"class.llvm::DenseMap.53", ptr, %"class.llvm::DenseMap.56", %"class.clang::CodeGen::EHScopeStack", %"class.llvm::SmallVector.64", %"class.llvm::SmallVector.70", %"class.llvm::SmallVector.75", ptr, %"class.clang::CodeGen::RawAddress", i32, ptr, ptr, ptr, %"class.llvm::SmallVector.80", ptr, ptr, ptr, ptr, ptr, ptr, i8, %"class.clang::FPOptions", %"class.llvm::SmallVector.85", %"class.clang::CodeGen::EHScopeStack::stable_iterator", ptr, i32, i8, i8, ptr, %"class.llvm::DenseMap.90", %"class.llvm::DenseMap.93", %"class.llvm::SmallDenseMap", %"class.llvm::DenseMap.97", %"class.llvm::DenseMap.100", %"class.llvm::SmallVector.103", %"class.clang::CodeGen::CodeGenFunction::OpenMPCancelExitStack", %"class.clang::CodeGen::CodeGenPGO", %"class.clang::CodeGen::Address", ptr, ptr, ptr, ptr, %"class.llvm::DenseMap.149", %"class.llvm::DenseMap.152", %"class.llvm::DenseMap.155", ptr, i32, i32, %"class.clang::SourceLocation", %"class.clang::CurrentSourceLocExprScope", ptr, ptr, ptr, %"class.clang::CharUnits", %"class.clang::CharUnits", %"class.clang::CodeGen::Address", ptr, %"class.clang::CodeGen::CallArgList", ptr, ptr, ptr, ptr, %"class.clang::SourceLocation", [4 x i8], %"class.llvm::DenseMap.173", ptr, %"class.clang::CodeGen::Address", ptr, ptr, %"class.llvm::SmallVector.176", %"class.llvm::MapVector", i32, i8, ptr, %"class.llvm::SmallVector.189" }
%"struct.clang::CodeGen::CodeGenTypeCache" = type { ptr, ptr, ptr, ptr, ptr, ptr, ptr, ptr, ptr, ptr, ptr, %union.anon.2, %union.anon.3, %union.anon.4, %union.anon.5, ptr, %union.anon.6, i8, %union.anon.7, %union.anon.8, i32, i32 }
%union.anon.2 = type { ptr }
%union.anon.3 = type { ptr }
%union.anon.4 = type { ptr }
%union.anon.5 = type { ptr }
%union.anon.6 = type { i8 }
%union.anon.7 = type { i8 }
%union.anon.8 = type { i8 }
%"class.clang::CodeGen::LoopInfoStack" = type { %"struct.clang::CodeGen::LoopAttributes", %"class.llvm::SmallVector" }
%"struct.clang::CodeGen::LoopAttributes" = type <{ i8, [3 x i8], i32, i32, i32, i32, i32, i32, i32, i32, i32, i32, i8, [3 x i8], i32, i32, i8, [3 x i8] }>
%"class.llvm::SmallVector" = type { %"class.llvm::SmallVectorImpl", %"struct.llvm::SmallVectorStorage" }
%"class.llvm::SmallVectorImpl" = type { %"class.llvm::SmallVectorTemplateBase" }
%"class.llvm::SmallVectorTemplateBase" = type { %"class.llvm::SmallVectorTemplateCommon" }
%"class.llvm::SmallVectorTemplateCommon" = type { %"class.llvm::SmallVectorBase" }
%"class.llvm::SmallVectorBase" = type { ptr, i32, i32 }
%"struct.llvm::SmallVectorStorage" = type { [32 x i8] }
%"class.clang::CodeGen::CGBuilderTy" = type { %"class.llvm::IRBuilder", ptr }
%"class.llvm::IRBuilder" = type { %"class.llvm::IRBuilderBase", %"class.llvm::ConstantFolder", %"class.clang::CodeGen::CGBuilderInserter" }
%"class.llvm::IRBuilderBase" = type { %"class.llvm::SmallVector.9", ptr, %"class.llvm::ilist_iterator_w_bits", ptr, ptr, ptr, ptr, %"class.llvm::FastMathFlags", i8, i8, i8, %"class.llvm::ArrayRef" }
%"class.llvm::SmallVector.9" = type { %"class.llvm::SmallVectorImpl.10", %"struct.llvm::SmallVectorStorage.13" }
%"class.llvm::SmallVectorImpl.10" = type { %"class.llvm::SmallVectorTemplateBase.11" }
%"class.llvm::SmallVectorTemplateBase.11" = type { %"class.llvm::SmallVectorTemplateCommon.12" }
%"class.llvm::SmallVectorTemplateCommon.12" = type { %"class.llvm::SmallVectorBase" }
%"struct.llvm::SmallVectorStorage.13" = type { [32 x i8] }
%"class.llvm::ilist_iterator_w_bits" = type <{ ptr, i8, i8, [6 x i8] }>
%"class.llvm::FastMathFlags" = type { i32 }
%"class.llvm::ArrayRef" = type { ptr, i64 }
%"class.llvm::ConstantFolder" = type { %"class.llvm::IRBuilderFolder" }
%"class.llvm::IRBuilderFolder" = type { ptr }
%"class.clang::CodeGen::CGBuilderInserter" = type { %"class.llvm::IRBuilderDefaultInserter", ptr }
%"class.llvm::IRBuilderDefaultInserter" = type { ptr }
%"class.clang::CodeGen::VarBypassDetector" = type <{ %"class.llvm::SmallVector.14", %"class.llvm::SmallVector.19", %"class.llvm::DenseMap", %"class.llvm::DenseSet", i8, [7 x i8] }>
%"class.llvm::SmallVector.14" = type { %"class.llvm::SmallVectorImpl.15", %"struct.llvm::SmallVectorStorage.18" }
%"class.llvm::SmallVectorImpl.15" = type { %"class.llvm::SmallVectorTemplateBase.16" }
%"class.llvm::SmallVectorTemplateBase.16" = type { %"class.llvm::SmallVectorTemplateCommon.17" }
%"class.llvm::SmallVectorTemplateCommon.17" = type { %"class.llvm::SmallVectorBase" }
%"struct.llvm::SmallVectorStorage.18" = type { [768 x i8] }
%"class.llvm::SmallVector.19" = type { %"class.llvm::SmallVectorImpl.20", %"struct.llvm::SmallVectorStorage.23" }
%"class.llvm::SmallVectorImpl.20" = type { %"class.llvm::SmallVectorTemplateBase.21" }
%"class.llvm::SmallVectorTemplateBase.21" = type { %"class.llvm::SmallVectorTemplateCommon.22" }
%"class.llvm::SmallVectorTemplateCommon.22" = type { %"class.llvm::SmallVectorBase" }
%"struct.llvm::SmallVectorStorage.23" = type { [256 x i8] }
%"class.llvm::DenseMap" = type <{ ptr, i32, i32, i32, [4 x i8] }>
%"class.llvm::DenseSet" = type { %"class.llvm::detail::DenseSetImpl" }
%"class.llvm::detail::DenseSetImpl" = type { %"class.llvm::DenseMap.24" }
%"class.llvm::DenseMap.24" = type <{ ptr, i32, i32, i32, [4 x i8] }>
%"class.llvm::SmallVector.27" = type { %"class.llvm::SmallVectorImpl.28", %"struct.llvm::SmallVectorStorage.31" }
%"class.llvm::SmallVectorImpl.28" = type { %"class.llvm::SmallVectorTemplateBase.29" }
%"class.llvm::SmallVectorTemplateBase.29" = type { %"class.llvm::SmallVectorTemplateCommon.30" }
%"class.llvm::SmallVectorTemplateCommon.30" = type { %"class.llvm::SmallVectorBase" }
%"struct.llvm::SmallVectorStorage.31" = type { [32 x i8] }
%"class.llvm::SmallVector.32" = type { %"class.llvm::SmallVectorImpl.33", %"struct.llvm::SmallVectorStorage.36" }
%"class.llvm::SmallVectorImpl.33" = type { %"class.llvm::SmallVectorTemplateBase.34" }
%"class.llvm::SmallVectorTemplateBase.34" = type { %"class.llvm::SmallVectorTemplateCommon.35" }
%"class.llvm::SmallVectorTemplateCommon.35" = type { %"class.llvm::SmallVectorBase" }
%"struct.llvm::SmallVectorStorage.36" = type { [128 x i8] }
%"class.llvm::SmallVector.37" = type { %"class.llvm::SmallVectorImpl.38", %"struct.llvm::SmallVectorStorage.41" }
%"class.llvm::SmallVectorImpl.38" = type { %"class.llvm::SmallVectorTemplateBase.39" }
%"class.llvm::SmallVectorTemplateBase.39" = type { %"class.llvm::SmallVectorTemplateCommon.40" }
%"class.llvm::SmallVectorTemplateCommon.40" = type { %"class.llvm::SmallVectorBase" }
%"struct.llvm::SmallVectorStorage.41" = type { [32 x i8] }
%"class.clang::QualType" = type { %"class.llvm::PointerIntPair.42" }
%"class.llvm::PointerIntPair.42" = type { %"struct.llvm::detail::PunnedPointer.43" }
%"struct.llvm::detail::PunnedPointer.43" = type { [8 x i8] }
%"class.llvm::SmallVector.44" = type { %"class.llvm::SmallVectorImpl.45", %"struct.llvm::SmallVectorStorage.48" }
%"class.llvm::SmallVectorImpl.45" = type { %"class.llvm::SmallVectorTemplateBase.46" }
%"class.llvm::SmallVectorTemplateBase.46" = type { %"class.llvm::SmallVectorTemplateCommon.47" }
%"class.llvm::SmallVectorTemplateCommon.47" = type { %"class.llvm::SmallVectorBase" }
%"struct.llvm::SmallVectorStorage.48" = type { [32 x i8] }
%"struct.clang::CodeGen::CodeGenFunction::CGCoroInfo" = type <{ %"class.std::unique_ptr", i8, [7 x i8] }>
%"class.std::unique_ptr" = type { %"struct.std::__uniq_ptr_data" }
%"struct.std::__uniq_ptr_data" = type { %"class.std::__uniq_ptr_impl" }
%"class.std::__uniq_ptr_impl" = type { %"class.std::tuple" }
%"class.std::tuple" = type { %"struct.std::_Tuple_impl" }
%"struct.std::_Tuple_impl" = type { %"struct.std::_Head_base.50" }
%"struct.std::_Head_base.50" = type { ptr }
%"struct.clang::CodeGen::CodeGenFunction::AwaitSuspendWrapperInfo" = type { ptr }
%"struct.clang::CodeGen::CodeGenFunction::JumpDest" = type <{ ptr, %"class.clang::CodeGen::EHScopeStack::stable_iterator", i32, [4 x i8] }>
%"class.llvm::AssertingVH" = type { ptr }
%"struct.clang::SanitizerSet" = type { %"class.clang::SanitizerMask" }
%"class.clang::SanitizerMask" = type { [2 x i64] }
%"class.clang::GlobalDecl" = type { %"class.llvm::PointerIntPair.51", i32, [4 x i8] }
%"class.llvm::PointerIntPair.51" = type { %"struct.llvm::detail::PunnedPointer.52" }
%"struct.llvm::detail::PunnedPointer.52" = type { [8 x i8] }
%"class.llvm::DenseMap.53" = type <{ ptr, i32, i32, i32, [4 x i8] }>
%"class.llvm::DenseMap.56" = type <{ ptr, i32, i32, i32, [4 x i8] }>
%"class.clang::CodeGen::EHScopeStack" = type { ptr, ptr, ptr, %"class.clang::CodeGen::EHScopeStack::stable_iterator", %"class.clang::CodeGen::EHScopeStack::stable_iterator", ptr, %"class.llvm::SmallVector.59" }
%"class.llvm::SmallVector.59" = type { %"class.llvm::SmallVectorImpl.60", %"struct.llvm::SmallVectorStorage.63" }
%"class.llvm::SmallVectorImpl.60" = type { %"class.llvm::SmallVectorTemplateBase.61" }
%"class.llvm::SmallVectorTemplateBase.61" = type { %"class.llvm::SmallVectorTemplateCommon.62" }
%"class.llvm::SmallVectorTemplateCommon.62" = type { %"class.llvm::SmallVectorBase" }
%"struct.llvm::SmallVectorStorage.63" = type { [256 x i8] }
%"class.llvm::SmallVector.64" = type { %"class.llvm::SmallVectorImpl.65", %"struct.llvm::SmallVectorStorage.69" }
%"class.llvm::SmallVectorImpl.65" = type { %"class.llvm::SmallVectorTemplateBase.66" }
%"class.llvm::SmallVectorTemplateBase.66" = type { %"class.llvm::SmallVectorTemplateCommon.67" }
%"class.llvm::SmallVectorTemplateCommon.67" = type { %"class.llvm::SmallVectorBase.68" }
%"class.llvm::SmallVectorBase.68" = type { ptr, i64, i64 }
%"struct.llvm::SmallVectorStorage.69" = type { [256 x i8] }
%"class.llvm::SmallVector.70" = type { %"class.llvm::SmallVectorImpl.71", %"struct.llvm::SmallVectorStorage.74" }
%"class.llvm::SmallVectorImpl.71" = type { %"class.llvm::SmallVectorTemplateBase.72" }
%"class.llvm::SmallVectorTemplateBase.72" = type { %"class.llvm::SmallVectorTemplateCommon.73" }
%"class.llvm::SmallVectorTemplateCommon.73" = type { %"class.llvm::SmallVectorBase" }
%"struct.llvm::SmallVectorStorage.74" = type { [48 x i8] }
%"class.llvm::SmallVector.75" = type { %"class.llvm::SmallVectorImpl.76", %"struct.llvm::SmallVectorStorage.79" }
%"class.llvm::SmallVectorImpl.76" = type { %"class.llvm::SmallVectorTemplateBase.77" }
%"class.llvm::SmallVectorTemplateBase.77" = type { %"class.llvm::SmallVectorTemplateCommon.78" }
%"class.llvm::SmallVectorTemplateCommon.78" = type { %"class.llvm::SmallVectorBase" }
%"struct.llvm::SmallVectorStorage.79" = type { [16 x i8] }
%"class.llvm::SmallVector.80" = type { %"class.llvm::SmallVectorImpl.81", %"struct.llvm::SmallVectorStorage.84" }
%"class.llvm::SmallVectorImpl.81" = type { %"class.llvm::SmallVectorTemplateBase.82" }
%"class.llvm::SmallVectorTemplateBase.82" = type { %"class.llvm::SmallVectorTemplateCommon.83" }
%"class.llvm::SmallVectorTemplateCommon.83" = type { %"class.llvm::SmallVectorBase" }
%"struct.llvm::SmallVectorStorage.84" = type { [48 x i8] }
%"class.clang::FPOptions" = type { i32 }
%"class.llvm::SmallVector.85" = type { %"class.llvm::SmallVectorImpl.86", %"struct.llvm::SmallVectorStorage.89" }
%"class.llvm::SmallVectorImpl.86" = type { %"class.llvm::SmallVectorTemplateBase.87" }
%"class.llvm::SmallVectorTemplateBase.87" = type { %"class.llvm::SmallVectorTemplateCommon.88" }
%"class.llvm::SmallVectorTemplateCommon.88" = type { %"class.llvm::SmallVectorBase" }
%"struct.llvm::SmallVectorStorage.89" = type { [64 x i8] }
%"class.clang::CodeGen::EHScopeStack::stable_iterator" = type { i64 }
%"class.llvm::DenseMap.90" = type <{ ptr, i32, i32, i32, [4 x i8] }>
%"class.llvm::DenseMap.93" = type <{ ptr, i32, i32, i32, [4 x i8] }>
%"class.llvm::SmallDenseMap" = type { i32, i32, %"struct.llvm::AlignedCharArrayUnion" }
%"struct.llvm::AlignedCharArrayUnion" = type { [32 x i8] }
%"class.llvm::DenseMap.97" = type <{ ptr, i32, i32, i32, [4 x i8] }>
%"class.llvm::DenseMap.100" = type <{ ptr, i32, i32, i32, [4 x i8] }>
%"class.llvm::SmallVector.103" = type { %"class.llvm::SmallVectorImpl.104", %"struct.llvm::SmallVectorStorage.107" }
%"class.llvm::SmallVectorImpl.104" = type { %"class.llvm::SmallVectorTemplateBase.105" }
%"class.llvm::SmallVectorTemplateBase.105" = type { %"class.llvm::SmallVectorTemplateCommon.106" }
%"class.llvm::SmallVectorTemplateCommon.106" = type { %"class.llvm::SmallVectorBase" }
%"struct.llvm::SmallVectorStorage.107" = type { [384 x i8] }
%"class.clang::CodeGen::CodeGenFunction::OpenMPCancelExitStack" = type { %"class.llvm::SmallVector.108" }
%"class.llvm::SmallVector.108" = type { %"class.llvm::SmallVectorImpl.109", %"struct.llvm::SmallVectorStorage.112" }
%"class.llvm::SmallVectorImpl.109" = type { %"class.llvm::SmallVectorTemplateBase.110" }
%"class.llvm::SmallVectorTemplateBase.110" = type { %"class.llvm::SmallVectorTemplateCommon.111" }
%"class.llvm::SmallVectorTemplateCommon.111" = type { %"class.llvm::SmallVectorBase" }
%"struct.llvm::SmallVectorStorage.112" = type { [448 x i8] }
%"class.clang::CodeGen::CodeGenPGO" = type { ptr, %"class.std::__cxx11::basic_string", ptr, %"struct.std::array", i32, i64, %"class.std::unique_ptr.114", %"class.std::unique_ptr.122", %"class.std::unique_ptr.130", %"class.std::unique_ptr.138", %"class.std::vector", i64 }
%"class.std::__cxx11::basic_string" = type { %"struct.std::__cxx11::basic_string<char>::_Alloc_hider", i64, %union.anon.113 }
%"struct.std::__cxx11::basic_string<char>::_Alloc_hider" = type { ptr }
%union.anon.113 = type { i64, [8 x i8] }
%"struct.std::array" = type { [3 x i32] }
%"class.std::unique_ptr.114" = type { %"struct.std::__uniq_ptr_data.115" }
%"struct.std::__uniq_ptr_data.115" = type { %"class.std::__uniq_ptr_impl.116" }
%"class.std::__uniq_ptr_impl.116" = type { %"class.std::tuple.117" }
%"class.std::tuple.117" = type { %"struct.std::_Tuple_impl.118" }
%"struct.std::_Tuple_impl.118" = type { %"struct.std::_Head_base.121" }
%"struct.std::_Head_base.121" = type { ptr }
%"class.std::unique_ptr.122" = type { %"struct.std::__uniq_ptr_data.123" }
%"struct.std::__uniq_ptr_data.123" = type { %"class.std::__uniq_ptr_impl.124" }
%"class.std::__uniq_ptr_impl.124" = type { %"class.std::tuple.125" }
%"class.std::tuple.125" = type { %"struct.std::_Tuple_impl.126" }
%"struct.std::_Tuple_impl.126" = type { %"struct.std::_Head_base.129" }
%"struct.std::_Head_base.129" = type { ptr }
%"class.std::unique_ptr.130" = type { %"struct.std::__uniq_ptr_data.131" }
%"struct.std::__uniq_ptr_data.131" = type { %"class.std::__uniq_ptr_impl.132" }
%"class.std::__uniq_ptr_impl.132" = type { %"class.std::tuple.133" }
%"class.std::tuple.133" = type { %"struct.std::_Tuple_impl.134" }
%"struct.std::_Tuple_impl.134" = type { %"struct.std::_Head_base.137" }
%"struct.std::_Head_base.137" = type { ptr }
%"class.std::unique_ptr.138" = type { %"struct.std::__uniq_ptr_data.139" }
%"struct.std::__uniq_ptr_data.139" = type { %"class.std::__uniq_ptr_impl.140" }
%"class.std::__uniq_ptr_impl.140" = type { %"class.std::tuple.141" }
%"class.std::tuple.141" = type { %"struct.std::_Tuple_impl.142" }
%"struct.std::_Tuple_impl.142" = type { %"struct.std::_Head_base.145" }
%"struct.std::_Head_base.145" = type { ptr }
%"class.std::vector" = type { %"struct.std::_Vector_base" }
%"struct.std::_Vector_base" = type { %"struct.std::_Vector_base<unsigned long, std::allocator<unsigned long>>::_Vector_impl" }
%"struct.std::_Vector_base<unsigned long, std::allocator<unsigned long>>::_Vector_impl" = type { %"struct.std::_Vector_base<unsigned long, std::allocator<unsigned long>>::_Vector_impl_data" }
%"struct.std::_Vector_base<unsigned long, std::allocator<unsigned long>>::_Vector_impl_data" = type { ptr, ptr, ptr }
%"class.llvm::DenseMap.149" = type <{ ptr, i32, i32, i32, [4 x i8] }>
%"class.llvm::DenseMap.152" = type <{ ptr, i32, i32, i32, [4 x i8] }>
%"class.llvm::DenseMap.155" = type <{ ptr, i32, i32, i32, [4 x i8] }>
%"class.clang::CurrentSourceLocExprScope" = type { ptr }
%"class.clang::CodeGen::CallArgList" = type { %"class.llvm::SmallVector.158", %"class.llvm::SmallVector.163", %"class.llvm::SmallVector.168", ptr }
%"class.llvm::SmallVector.158" = type { %"class.llvm::SmallVectorImpl.159", %"struct.llvm::SmallVectorStorage.162" }
%"class.llvm::SmallVectorImpl.159" = type { %"class.llvm::SmallVectorTemplateBase.160" }
%"class.llvm::SmallVectorTemplateBase.160" = type { %"class.llvm::SmallVectorTemplateCommon.161" }
%"class.llvm::SmallVectorTemplateCommon.161" = type { %"class.llvm::SmallVectorBase" }
%"struct.llvm::SmallVectorStorage.162" = type { [1216 x i8] }
%"class.llvm::SmallVector.163" = type { %"class.llvm::SmallVectorImpl.164", %"struct.llvm::SmallVectorStorage.167" }
%"class.llvm::SmallVectorImpl.164" = type { %"class.llvm::SmallVectorTemplateBase.165" }
%"class.llvm::SmallVectorTemplateBase.165" = type { %"class.llvm::SmallVectorTemplateCommon.166" }
%"class.llvm::SmallVectorTemplateCommon.166" = type { %"class.llvm::SmallVectorBase" }
%"struct.llvm::SmallVectorStorage.167" = type { [208 x i8] }
%"class.llvm::SmallVector.168" = type { %"class.llvm::SmallVectorImpl.169", %"struct.llvm::SmallVectorStorage.172" }
%"class.llvm::SmallVectorImpl.169" = type { %"class.llvm::SmallVectorTemplateBase.170" }
%"class.llvm::SmallVectorTemplateBase.170" = type { %"class.llvm::SmallVectorTemplateCommon.171" }
%"class.llvm::SmallVectorTemplateCommon.171" = type { %"class.llvm::SmallVectorBase" }
%"struct.llvm::SmallVectorStorage.172" = type { [16 x i8] }
%"class.clang::SourceLocation" = type { i32 }
%"class.llvm::DenseMap.173" = type <{ ptr, i32, i32, i32, [4 x i8] }>
%"class.llvm::SmallVector.176" = type { %"class.llvm::SmallVectorImpl.177", %"struct.llvm::SmallVectorStorage.180" }
%"class.llvm::SmallVectorImpl.177" = type { %"class.llvm::SmallVectorTemplateBase.178" }
%"class.llvm::SmallVectorTemplateBase.178" = type { %"class.llvm::SmallVectorTemplateCommon.179" }
%"class.llvm::SmallVectorTemplateCommon.179" = type { %"class.llvm::SmallVectorBase" }
%"struct.llvm::SmallVectorStorage.180" = type { [16 x i8] }
%"class.llvm::MapVector" = type { %"class.llvm::DenseMap.181", %"class.llvm::SmallVector.184" }
%"class.llvm::DenseMap.181" = type <{ ptr, i32, i32, i32, [4 x i8] }>
%"class.llvm::SmallVector.184" = type { %"class.llvm::SmallVectorImpl.185" }
%"class.llvm::SmallVectorImpl.185" = type { %"class.llvm::SmallVectorTemplateBase.186" }
%"class.llvm::SmallVectorTemplateBase.186" = type { %"class.llvm::SmallVectorTemplateCommon.187" }
%"class.llvm::SmallVectorTemplateCommon.187" = type { %"class.llvm::SmallVectorBase" }
%"class.llvm::SmallVector.189" = type { %"class.llvm::SmallVectorImpl.190", %"struct.llvm::SmallVectorStorage.193" }
%"class.llvm::SmallVectorImpl.190" = type { %"class.llvm::SmallVectorTemplateBase.191" }
%"class.llvm::SmallVectorTemplateBase.191" = type { %"class.llvm::SmallVectorTemplateCommon.192" }
%"class.llvm::SmallVectorTemplateCommon.192" = type { %"class.llvm::SmallVectorBase" }
%"struct.llvm::SmallVectorStorage.193" = type { [128 x i8] }
%"class.llvm::StringRef" = type { ptr, i64 }
%"class.llvm::FunctionCallee" = type { ptr, ptr }
%"class.llvm::AttributeList" = type { ptr }

@.str.10 = private unnamed_addr constant [17 x i8] c"llvm.seh.try.end\00", align 1

; Function Attrs: mustprogress nounwind uwtable
define linkonce_odr hidden noundef i64 @_ZNSt11char_traitsIcE6lengthEPKc(ptr noundef %0) #0 comdat align 2 {
  %2 = alloca ptr, align 8
  store ptr %0, ptr %2, align 8
  %3 = load ptr, ptr %2, align 8
  %4 = call i64 @strlen(ptr noundef %3) #12
  ret i64 %4
}

; Function Attrs: mustprogress nounwind uwtable
define linkonce_odr hidden void @_ZN4llvm13AttributeListC2Ev(ptr noundef nonnull align 8 dereferenceable(8) %0) unnamed_addr #0 comdat align 2 {
  %2 = alloca ptr, align 8
  store ptr %0, ptr %2, align 8
  %3 = load ptr, ptr %2, align 8
  %4 = getelementptr inbounds nuw %"class.llvm::AttributeList", ptr %3, i32 0, i32 0
  store ptr null, ptr %4, align 8
  ret void
}

; Function Attrs: mustprogress nounwind uwtable
define linkonce_odr hidden void @_ZN4llvm9StringRefC2EPKc(ptr noundef nonnull align 8 dereferenceable(16) %0, ptr noundef %1) unnamed_addr #0 comdat align 2 {
  %3 = alloca ptr, align 8
  %4 = alloca ptr, align 8
  store ptr %0, ptr %3, align 8
  store ptr %1, ptr %4, align 8
  %5 = load ptr, ptr %3, align 8
  %6 = getelementptr inbounds nuw %"class.llvm::StringRef", ptr %5, i32 0, i32 0
  %7 = load ptr, ptr %4, align 8
  store ptr %7, ptr %6, align 8
  %8 = getelementptr inbounds nuw %"class.llvm::StringRef", ptr %5, i32 0, i32 1
  %9 = load ptr, ptr %4, align 8
  %10 = icmp ne ptr %9, null
  br i1 %10, label %11, label %14

11:                                               ; preds = %2
  %12 = load ptr, ptr %4, align 8
  %13 = call noundef i64 @_ZNSt11char_traitsIcE6lengthEPKc(ptr noundef %12)
  br label %15

14:                                               ; preds = %2
  br label %15

15:                                               ; preds = %14, %11
  %16 = phi i64 [ %13, %11 ], [ 0, %14 ]
  store i64 %16, ptr %8, align 8
  ret void
}

; Function Attrs: mustprogress nounwind uwtable
define dso_local void @_ZN5clang7CodeGen15CodeGenFunction18EmitSehTryScopeEndEv(ptr noundef nonnull align 8 dereferenceable(6488) %0) #0 align 2 {
  %2 = alloca ptr, align 8
  %3 = alloca ptr, align 8
  %4 = alloca %"class.llvm::FunctionCallee", align 8
  %5 = alloca %"class.llvm::StringRef", align 8
  %6 = alloca %"class.llvm::AttributeList", align 8
  store ptr %0, ptr %2, align 8
  %7 = load ptr, ptr %2, align 8
  %8 = getelementptr inbounds nuw %"class.clang::CodeGen::CodeGenFunction", ptr %7, i32 0, i32 1
  %9 = load ptr, ptr %8, align 8
  %10 = getelementptr inbounds nuw %"struct.clang::CodeGen::CodeGenTypeCache", ptr %9, i32 0, i32 0
  %11 = load ptr, ptr %10, align 8
  %12 = call noundef ptr @_ZN4llvm12FunctionType3getEPNS_4TypeEb(ptr noundef %11, i1 noundef zeroext false)
  store ptr %12, ptr %3, align 8
  %13 = getelementptr inbounds nuw %"class.clang::CodeGen::CodeGenFunction", ptr %7, i32 0, i32 1
  %14 = load ptr, ptr %13, align 8
  %15 = load ptr, ptr %3, align 8
  call void @_ZN4llvm9StringRefC2EPKc(ptr noundef nonnull align 8 dereferenceable(16) %5, ptr noundef @.str.10)
  call void @llvm.memset.p0.i64(ptr align 8 %6, i8 0, i64 8, i1 false)
  call void @_ZN4llvm13AttributeListC2Ev(ptr noundef nonnull align 8 dereferenceable(8) %6) #12
  %16 = getelementptr inbounds nuw { ptr, i64 }, ptr %5, i32 0, i32 0
  %17 = load ptr, ptr %16, align 8
  %18 = getelementptr inbounds nuw { ptr, i64 }, ptr %5, i32 0, i32 1
  %19 = load i64, ptr %18, align 8
  %20 = getelementptr inbounds nuw %"class.llvm::AttributeList", ptr %6, i32 0, i32 0
  %21 = load ptr, ptr %20, align 8
  %22 = call { ptr, ptr } @_ZN5clang7CodeGen13CodeGenModule21CreateRuntimeFunctionEPN4llvm12FunctionTypeENS2_9StringRefENS2_13AttributeListEbb(ptr noundef nonnull align 8 dereferenceable(3600) %14, ptr noundef %15, ptr %17, i64 %19, ptr %21, i1 noundef zeroext false, i1 noundef zeroext false)
  %23 = getelementptr inbounds nuw { ptr, ptr }, ptr %4, i32 0, i32 0
  %24 = extractvalue { ptr, ptr } %22, 0
  store ptr %24, ptr %23, align 8
  %25 = getelementptr inbounds nuw { ptr, ptr }, ptr %4, i32 0, i32 1
  %26 = extractvalue { ptr, ptr } %22, 1
  store ptr %26, ptr %25, align 8
  call void @_ZL12EmitSehScopeRN5clang7CodeGen15CodeGenFunctionERN4llvm14FunctionCalleeE(ptr noundef nonnull align 8 dereferenceable(6488) %7, ptr noundef nonnull align 8 dereferenceable(16) %4)
  ret void
}