; Function Attrs: mustprogress nounwind uwtable
define dso_local void @_ZN5clang7CodeGen15CodeGenFunction18EmitSehTryScopeEndEv(ptr noundef nonnull align 8 dereferenceable(6488) %0) local_unnamed_addr #1 align 2 {
  %2 = alloca %"class.llvm::FunctionCallee", align 8
  %3 = getelementptr inbounds nuw i8, ptr %0, i64 144
  %4 = load ptr, ptr %3, align 8
  %5 = load ptr, ptr %4, align 8
  %6 = tail call noundef ptr @_ZN4llvm12FunctionType3getEPNS_4TypeEb(ptr noundef %5, i1 noundef zeroext false) #19
  %7 = load ptr, ptr %3, align 8
  %8 = tail call { ptr, ptr } @_ZN5clang7CodeGen13CodeGenModule21CreateRuntimeFunctionEPN4llvm12FunctionTypeENS2_9StringRefENS2_13AttributeListEbb(ptr noundef nonnull align 8 dereferenceable(3600) %7, ptr noundef %6, ptr nonnull @.str.10, i64 16, ptr null, i1 noundef zeroext false, i1 noundef zeroext false) #19
  %9 = extractvalue { ptr, ptr } %8, 0
  store ptr %9, ptr %2, align 8
  %10 = getelementptr inbounds nuw i8, ptr %2, i64 8
  %11 = extractvalue { ptr, ptr } %8, 1
  store ptr %11, ptr %10, align 8
  call fastcc void @_ZL12EmitSehScopeRN5clang7CodeGen15CodeGenFunctionERN4llvm14FunctionCalleeE(ptr noundef nonnull align 8 dereferenceable(6488) %0, ptr noundef nonnull align 8 dereferenceable(16) %2)
  ret void
}